target datalayout = "e-m:e-p270:32:32-p271:32:32-p272:64:64-i64:64-i128:128-f80:128-n8:16:32:64-S128"
target triple = "x86_64-pc-linux-gnu"

%struct._generic_SUNAdaptController = type { ptr, ptr, ptr }
%struct._ARKUserControlContent = type { double, double, double, double, ptr, ptr, ptr }

@.str = private unnamed_addr constant [24 x i8] c"ARKUserControl module:\0A\00", align 1
@.str.1 = private unnamed_addr constant [13 x i8] c"  hp = %12g\0A\00", align 1
@.str.2 = private unnamed_addr constant [14 x i8] c"  hpp = %12g\0A\00", align 1
@.str.3 = private unnamed_addr constant [13 x i8] c"  ep = %12g\0A\00", align 1
@.str.4 = private unnamed_addr constant [14 x i8] c"  epp = %12g\0A\00", align 1
@.str.5 = private unnamed_addr constant [20 x i8] c"  hadapt_data = %p\0A\00", align 1

; Function Attrs: nounwind uwtable
define i32 @SUNAdaptController_Write_ARKUserControl(ptr noundef %0, ptr noundef %1) #0 {
  %3 = alloca ptr, align 8
  %4 = alloca ptr, align 8
  store ptr %0, ptr %3, align 8, !tbaa !9
  store ptr %1, ptr %4, align 8, !tbaa !53
  %5 = load ptr, ptr %4, align 8, !tbaa !53
  %6 = call i32 (ptr, ptr, ...) @fprintf(ptr noundef %5, ptr noundef @.str) #5
  %7 = load ptr, ptr %4, align 8, !tbaa !53
  %8 = load ptr, ptr %3, align 8, !tbaa !9
  %9 = getelementptr inbounds nuw %struct._generic_SUNAdaptController, ptr %8, i32 0, i32 0
  %10 = load ptr, ptr %9, align 8, !tbaa !23
  %11 = getelementptr inbounds nuw %struct._ARKUserControlContent, ptr %10, i32 0, i32 0
  %12 = load double, ptr %11, align 8, !tbaa !45
  %13 = call i32 (ptr, ptr, ...) @fprintf(ptr noundef %7, ptr noundef @.str.1, double noundef %12) #5
  %14 = load ptr, ptr %4, align 8, !tbaa !53
  %15 = load ptr, ptr %3, align 8, !tbaa !9
  %16 = getelementptr inbounds nuw %struct._generic_SUNAdaptController, ptr %15, i32 0, i32 0
  %17 = load ptr, ptr %16, align 8, !tbaa !23
  %18 = getelementptr inbounds nuw %struct._ARKUserControlContent, ptr %17, i32 0, i32 1
  %19 = load double, ptr %18, align 8, !tbaa !46
  %20 = call i32 (ptr, ptr, ...) @fprintf(ptr noundef %14, ptr noundef @.str.2, double noundef %19) #5
  %21 = load ptr, ptr %4, align 8, !tbaa !53
  %22 = load ptr, ptr %3, align 8, !tbaa !9
  %23 = getelementptr inbounds nuw %struct._generic_SUNAdaptController, ptr %22, i32 0, i32 0
  %24 = load ptr, ptr %23, align 8, !tbaa !23
  %25 = getelementptr inbounds nuw %struct._ARKUserControlContent, ptr %24, i32 0, i32 2
  %26 = load double, ptr %25, align 8, !tbaa !47
  %27 = call i32 (ptr, ptr, ...) @fprintf(ptr noundef %21, ptr noundef @.str.3, double noundef %26) #5
  %28 = load ptr, ptr %4, align 8, !tbaa !53
  %29 = load ptr, ptr %3, align 8, !tbaa !9
  %30 = getelementptr inbounds nuw %struct._generic_SUNAdaptController, ptr %29, i32 0, i32 0
  %31 = load ptr, ptr %30, align 8, !tbaa !23
  %32 = getelementptr inbounds nuw %struct._ARKUserControlContent, ptr %31, i32 0, i32 3
  %33 = load double, ptr %32, align 8, !tbaa !48
  %34 = call i32 (ptr, ptr, ...) @fprintf(ptr noundef %28, ptr noundef @.str.4, double noundef %33) #5
  %35 = load ptr, ptr %4, align 8, !tbaa !53
  %36 = load ptr, ptr %3, align 8, !tbaa !9
  %37 = getelementptr inbounds nuw %struct._generic_SUNAdaptController, ptr %36, i32 0, i32 0
  %38 = load ptr, ptr %37, align 8, !tbaa !23
  %39 = getelementptr inbounds nuw %struct._ARKUserControlContent, ptr %38, i32 0, i32 6
  %40 = load ptr, ptr %39, align 8, !tbaa !29
  %41 = call i32 (ptr, ptr, ...) @fprintf(ptr noundef %35, ptr noundef @.str.5, ptr noundef %40) #5
  ret i32 0
}