; Function Attrs: nofree nounwind uwtable
define noundef i32 @SUNAdaptController_Write_ARKUserControl(ptr noundef readonly captures(none) %0, ptr noundef captures(none) %1) #4 {
  %3 = tail call i64 @fwrite(ptr nonnull @.str, i64 23, i64 1, ptr %1)
  %4 = load ptr, ptr %0, align 8, !tbaa !17
  %5 = load double, ptr %4, align 8, !tbaa !37
  %6 = tail call i32 (ptr, ptr, ...) @fprintf(ptr noundef %1, ptr noundef nonnull @.str.1, double noundef %5) #11
  %7 = load ptr, ptr %0, align 8, !tbaa !17
  %8 = getelementptr inbounds nuw i8, ptr %7, i64 8
  %9 = load double, ptr %8, align 8, !tbaa !38
  %10 = tail call i32 (ptr, ptr, ...) @fprintf(ptr noundef %1, ptr noundef nonnull @.str.2, double noundef %9) #11
  %11 = load ptr, ptr %0, align 8, !tbaa !17
  %12 = getelementptr inbounds nuw i8, ptr %11, i64 16
  %13 = load double, ptr %12, align 8, !tbaa !24
  %14 = tail call i32 (ptr, ptr, ...) @fprintf(ptr noundef %1, ptr noundef nonnull @.str.3, double noundef %13) #11
  %15 = load ptr, ptr %0, align 8, !tbaa !17
  %16 = getelementptr inbounds nuw i8, ptr %15, i64 24
  %17 = load double, ptr %16, align 8, !tbaa !25
  %18 = tail call i32 (ptr, ptr, ...) @fprintf(ptr noundef %1, ptr noundef nonnull @.str.4, double noundef %17) #11
  %19 = load ptr, ptr %0, align 8, !tbaa !17
  %20 = getelementptr inbounds nuw i8, ptr %19, i64 48
  %21 = load ptr, ptr %20, align 8, !tbaa !23
  %22 = tail call i32 (ptr, ptr, ...) @fprintf(ptr noundef %1, ptr noundef nonnull @.str.5, ptr noundef %21) #11
  ret i32 0
}